target datalayout = "e-m:e-p270:32:32-p271:32:32-p272:64:64-i64:64-i128:128-f80:128-n8:16:32:64-S128"
target triple = "x86_64-unknown-linux-gnu"

%struct.QemuEvent = type { i32, i8 }
%struct.QemuThread = type { i64 }
%struct.QemuSemaphore = type { %struct.QemuMutex, %struct.QemuCond, i32 }
%struct.QemuMutex = type { %union.pthread_mutex_t, i8 }
%union.pthread_mutex_t = type { %struct.__pthread_mutex_s }
%struct.__pthread_mutex_s = type { i32, i32, i32, i32, i32, i16, i16, %struct.__pthread_internal_list }
%struct.__pthread_internal_list = type { ptr, ptr }
%struct.QemuCond = type { %union.pthread_cond_t, i8 }
%union.pthread_cond_t = type { %struct.__pthread_cond_s }
%struct.__pthread_cond_s = type { %union.__atomic_wide_counter, %union.__atomic_wide_counter, [2 x i32], [2 x i32], i32, i32, [2 x i32] }
%union.__atomic_wide_counter = type { i64 }
%struct.MigrationState = type { %struct.DeviceState, %struct.QemuThread, ptr, ptr, ptr, ptr, %struct.QemuSemaphore, ptr, %struct.QemuMutex, %struct.QemuSemaphore, i64, double, i64, i64, i64, %struct.MigrationParameters, i32, %struct.anon.2, double, i64, i64, i64, i64, i64, [23 x i8], i64, i32, i8, i8, i8, i8, %struct.QemuSemaphore, %struct.QemuSemaphore, %struct.QemuSemaphore, %struct.QemuEvent, i64, ptr, ptr, %struct.QemuMutex, i8, i8, i8, i8, %struct.QemuSemaphore, i8, i8, i8, i8, ptr, ptr, i8, i8 }
%struct.DeviceState = type { %struct.Object, ptr, ptr, i8, i8, i64, ptr, i32, i8, ptr, %struct.NamedGPIOListHead, %struct.NamedClockListHead, %struct.BusStateHead, i32, i32, i32, %struct.ResettableState, ptr, %struct.MemReentrancyGuard }
%struct.Object = type { ptr, ptr, ptr, i32, ptr }
%struct.NamedGPIOListHead = type { ptr }
%struct.NamedClockListHead = type { ptr }
%struct.BusStateHead = type { ptr }
%struct.ResettableState = type { i32, i8, i8 }
%struct.MemReentrancyGuard = type { i8 }
%struct.MigrationParameters = type { i8, i64, i8, i64, i8, i64, i8, i64, i8, i8, i8, i8, i8, i8, i8, i8, i8, i8, i8, i8, i8, i8, i8, i8, ptr, ptr, ptr, i8, i64, i8, i64, i8, i64, i8, i32, i8, i8, i8, i8, i8, i64, i8, i64, i8, i8, i8, i32, i8, i8, i8, i8, i8, ptr, i8, i64, i8, i64, i8, i32 }
%struct.anon.2 = type { ptr, %struct.QemuThread, i8, %struct.QemuSemaphore, %struct.QemuSemaphore }

@.str.3 = private unnamed_addr constant [10 x i8] c"migration\00", align 1
@.str.50 = private unnamed_addr constant [30 x i8] c"../qemu/migration/migration.h\00", align 1
@__func__.MIGRATION_OBJ = private unnamed_addr constant [14 x i8] c"MIGRATION_OBJ\00", align 1

; Function Attrs: nounwind sspstrong uwtable
define internal ptr @MIGRATION_OBJ(ptr noundef %obj) #0 {
entry:
  %obj.addr = alloca ptr, align 8
  store ptr %obj, ptr %obj.addr, align 8
  %0 = load ptr, ptr %obj.addr, align 8
  %call = call ptr @object_dynamic_cast_assert(ptr noundef %0, ptr noundef @.str.3, ptr noundef @.str.50, i32 noundef 245, ptr noundef @__func__.MIGRATION_OBJ)
  ret ptr %call
}

; Function Attrs: nounwind sspstrong uwtable
define internal void @migration_instance_finalize(ptr noundef %obj) #0 {
entry:
  %obj.addr = alloca ptr, align 8
  %ms = alloca ptr, align 8
  store ptr %obj, ptr %obj.addr, align 8
  %0 = load ptr, ptr %obj.addr, align 8
  %call = call ptr @MIGRATION_OBJ(ptr noundef %0)
  store ptr %call, ptr %ms, align 8
  %1 = load ptr, ptr %ms, align 8
  %error_mutex = getelementptr inbounds %struct.MigrationState, ptr %1, i32 0, i32 38
  call void @qemu_mutex_destroy(ptr noundef %error_mutex)
  %2 = load ptr, ptr %ms, align 8
  %qemu_file_lock = getelementptr inbounds %struct.MigrationState, ptr %2, i32 0, i32 8
  call void @qemu_mutex_destroy(ptr noundef %qemu_file_lock)
  %3 = load ptr, ptr %ms, align 8
  %wait_unplug_sem = getelementptr inbounds %struct.MigrationState, ptr %3, i32 0, i32 31
  call void @qemu_sem_destroy(ptr noundef %wait_unplug_sem)
  %4 = load ptr, ptr %ms, align 8
  %rate_limit_sem = getelementptr inbounds %struct.MigrationState, ptr %4, i32 0, i32 9
  call void @qemu_sem_destroy(ptr noundef %rate_limit_sem)
  %5 = load ptr, ptr %ms, align 8
  %pause_sem = getelementptr inbounds %struct.MigrationState, ptr %5, i32 0, i32 32
  call void @qemu_sem_destroy(ptr noundef %pause_sem)
  %6 = load ptr, ptr %ms, align 8
  %postcopy_pause_sem = getelementptr inbounds %struct.MigrationState, ptr %6, i32 0, i32 43
  call void @qemu_sem_destroy(ptr noundef %postcopy_pause_sem)
  %7 = load ptr, ptr %ms, align 8
  %rp_state = getelementptr inbounds %struct.MigrationState, ptr %7, i32 0, i32 17
  %rp_sem = getelementptr inbounds %struct.anon.2, ptr %rp_state, i32 0, i32 3
  call void @qemu_sem_destroy(ptr noundef %rp_sem)
  %8 = load ptr, ptr %ms, align 8
  %rp_state1 = getelementptr inbounds %struct.MigrationState, ptr %8, i32 0, i32 17
  %rp_pong_acks = getelementptr inbounds %struct.anon.2, ptr %rp_state1, i32 0, i32 4
  call void @qemu_sem_destroy(ptr noundef %rp_pong_acks)
  %9 = load ptr, ptr %ms, align 8
  %postcopy_qemufile_src_sem = getelementptr inbounds %struct.MigrationState, ptr %9, i32 0, i32 6
  call void @qemu_sem_destroy(ptr noundef %postcopy_qemufile_src_sem)
  %10 = load ptr, ptr %ms, align 8
  %error = getelementptr inbounds %struct.MigrationState, ptr %10, i32 0, i32 37
  %11 = load ptr, ptr %error, align 8
  call void @error_free(ptr noundef %11)
  ret void
}