; Function Attrs: nounwind sspstrong uwtable
define internal void @migration_instance_finalize(ptr noundef %obj) #0 {
entry:
  %call.i = tail call ptr @object_dynamic_cast_assert(ptr noundef %obj, ptr noundef nonnull @.str.3, ptr noundef nonnull @.str.50, i32 noundef 245, ptr noundef nonnull @__func__.MIGRATION_OBJ) #19
  %error_mutex = getelementptr inbounds nuw i8, ptr %call.i, i64 1488
  tail call void @qemu_mutex_destroy(ptr noundef nonnull %error_mutex) #19
  %qemu_file_lock = getelementptr inbounds nuw i8, ptr %call.i, i64 320
  tail call void @qemu_mutex_destroy(ptr noundef nonnull %qemu_file_lock) #19
  %wait_unplug_sem = getelementptr inbounds nuw i8, ptr %call.i, i64 1120
  tail call void @qemu_sem_destroy(ptr noundef nonnull %wait_unplug_sem) #19
  %rate_limit_sem = getelementptr inbounds nuw i8, ptr %call.i, i64 368
  tail call void @qemu_sem_destroy(ptr noundef nonnull %rate_limit_sem) #19
  %pause_sem = getelementptr inbounds nuw i8, ptr %call.i, i64 1232
  tail call void @qemu_sem_destroy(ptr noundef nonnull %pause_sem) #19
  %postcopy_pause_sem = getelementptr inbounds nuw i8, ptr %call.i, i64 1544
  tail call void @qemu_sem_destroy(ptr noundef nonnull %postcopy_pause_sem) #19
  %rp_sem = getelementptr inbounds nuw i8, ptr %call.i, i64 808
  tail call void @qemu_sem_destroy(ptr noundef nonnull %rp_sem) #19
  %rp_pong_acks = getelementptr inbounds nuw i8, ptr %call.i, i64 920
  tail call void @qemu_sem_destroy(ptr noundef nonnull %rp_pong_acks) #19
  %postcopy_qemufile_src_sem = getelementptr inbounds nuw i8, ptr %call.i, i64 200
  tail call void @qemu_sem_destroy(ptr noundef nonnull %postcopy_qemufile_src_sem) #19
  %error = getelementptr inbounds nuw i8, ptr %call.i, i64 1480
  %0 = load ptr, ptr %error, align 8
  tail call void @error_free(ptr noundef %0) #19
  ret void
}